target datalayout = "e-m:e-p270:32:32-p271:32:32-p272:64:64-i64:64-i128:128-f80:128-n8:16:32:64-S128"
target triple = "x86_64-pc-linux-gnu"

%struct.compressionParameters = type { i32, ptr, i32, ptr, ptr, ptr, ptr, ptr, ptr, ptr, ptr }

; Function Attrs: nounwind uwtable
define internal void @LZ4_compressCleanupStreamHC(ptr noundef %0) #0 {
  %2 = alloca ptr, align 8
  store ptr %0, ptr %2, align 8, !tbaa !65
  %3 = load ptr, ptr %2, align 8, !tbaa !65
  %4 = getelementptr inbounds nuw %struct.compressionParameters, ptr %3, i32 0, i32 5
  %5 = load ptr, ptr %4, align 8, !tbaa !74
  %6 = call i32 @LZ4_freeStreamHC(ptr noundef %5)
  %7 = load ptr, ptr %2, align 8, !tbaa !65
  %8 = getelementptr inbounds nuw %struct.compressionParameters, ptr %7, i32 0, i32 6
  %9 = load ptr, ptr %8, align 8, !tbaa !75
  %10 = call i32 @LZ4_freeStreamHC(ptr noundef %9)
  ret void
}