; Function Attrs: nounwind uwtable
define internal void @LZ4_compressCleanupStreamHC(ptr noundef readonly captures(none) %0) #3 {
  %2 = getelementptr inbounds nuw i8, ptr %0, i64 40
  %3 = load ptr, ptr %2, align 8, !tbaa !65
  %4 = tail call i32 @LZ4_freeStreamHC(ptr noundef %3) #19
  %5 = getelementptr inbounds nuw i8, ptr %0, i64 48
  %6 = load ptr, ptr %5, align 8, !tbaa !66
  %7 = tail call i32 @LZ4_freeStreamHC(ptr noundef %6) #19
  ret void
}